target datalayout = "e-m:e-p270:32:32-p271:32:32-p272:64:64-i64:64-i128:128-f80:128-n8:16:32:64-S128"
target triple = "x86_64-pc-linux-gnu"

%struct._generic_N_Vector = type { ptr, ptr, ptr }
%struct._N_VectorContent_Serial = type { i64, i32, ptr }

; Function Attrs: nounwind uwtable
define internal void @VNeg_Serial(ptr noundef %0, ptr noundef %1) #0 {
  %3 = alloca ptr, align 8
  %4 = alloca ptr, align 8
  %5 = alloca i64, align 8
  %6 = alloca i64, align 8
  %7 = alloca ptr, align 8
  %8 = alloca ptr, align 8
  store ptr %0, ptr %3, align 8, !tbaa !10
  store ptr %1, ptr %4, align 8, !tbaa !10
  call void @llvm.lifetime.start.p0(i64 8, ptr %5) #6
  call void @llvm.lifetime.start.p0(i64 8, ptr %6) #6
  call void @llvm.lifetime.start.p0(i64 8, ptr %7) #6
  call void @llvm.lifetime.start.p0(i64 8, ptr %8) #6
  store ptr null, ptr %8, align 8, !tbaa !69
  store ptr null, ptr %7, align 8, !tbaa !69
  %9 = load ptr, ptr %3, align 8, !tbaa !10
  %10 = getelementptr inbounds nuw %struct._generic_N_Vector, ptr %9, i32 0, i32 0
  %11 = load ptr, ptr %10, align 8, !tbaa !61
  %12 = getelementptr inbounds nuw %struct._N_VectorContent_Serial, ptr %11, i32 0, i32 0
  %13 = load i64, ptr %12, align 8, !tbaa !62
  store i64 %13, ptr %6, align 8, !tbaa !3
  %14 = load ptr, ptr %3, align 8, !tbaa !10
  %15 = getelementptr inbounds nuw %struct._generic_N_Vector, ptr %14, i32 0, i32 0
  %16 = load ptr, ptr %15, align 8, !tbaa !61
  %17 = getelementptr inbounds nuw %struct._N_VectorContent_Serial, ptr %16, i32 0, i32 2
  %18 = load ptr, ptr %17, align 8, !tbaa !67
  store ptr %18, ptr %7, align 8, !tbaa !69
  %19 = load ptr, ptr %4, align 8, !tbaa !10
  %20 = getelementptr inbounds nuw %struct._generic_N_Vector, ptr %19, i32 0, i32 0
  %21 = load ptr, ptr %20, align 8, !tbaa !61
  %22 = getelementptr inbounds nuw %struct._N_VectorContent_Serial, ptr %21, i32 0, i32 2
  %23 = load ptr, ptr %22, align 8, !tbaa !67
  store ptr %23, ptr %8, align 8, !tbaa !69
  store i64 0, ptr %5, align 8, !tbaa !3
  br label %24

24:                                               ; preds = %37, %2
  %25 = load i64, ptr %5, align 8, !tbaa !3
  %26 = load i64, ptr %6, align 8, !tbaa !3
  %27 = icmp slt i64 %25, %26
  br i1 %27, label %28, label %40

28:                                               ; preds = %24
  %29 = load ptr, ptr %7, align 8, !tbaa !69
  %30 = load i64, ptr %5, align 8, !tbaa !3
  %31 = getelementptr inbounds double, ptr %29, i64 %30
  %32 = load double, ptr %31, align 8, !tbaa !72
  %33 = fneg double %32
  %34 = load ptr, ptr %8, align 8, !tbaa !69
  %35 = load i64, ptr %5, align 8, !tbaa !3
  %36 = getelementptr inbounds double, ptr %34, i64 %35
  store double %33, ptr %36, align 8, !tbaa !72
  br label %37

37:                                               ; preds = %28
  %38 = load i64, ptr %5, align 8, !tbaa !3
  %39 = add nsw i64 %38, 1
  store i64 %39, ptr %5, align 8, !tbaa !3
  br label %24

40:                                               ; preds = %24
  call void @llvm.lifetime.end.p0(i64 8, ptr %8) #6
  call void @llvm.lifetime.end.p0(i64 8, ptr %7) #6
  call void @llvm.lifetime.end.p0(i64 8, ptr %6) #6
  call void @llvm.lifetime.end.p0(i64 8, ptr %5) #6
  ret void
}

; Function Attrs: nounwind uwtable
define internal void @VCopy_Serial(ptr noundef %0, ptr noundef %1) #0 {
  %3 = alloca ptr, align 8
  %4 = alloca ptr, align 8
  %5 = alloca i64, align 8
  %6 = alloca i64, align 8
  %7 = alloca ptr, align 8
  %8 = alloca ptr, align 8
  store ptr %0, ptr %3, align 8, !tbaa !10
  store ptr %1, ptr %4, align 8, !tbaa !10
  call void @llvm.lifetime.start.p0(i64 8, ptr %5) #6
  call void @llvm.lifetime.start.p0(i64 8, ptr %6) #6
  call void @llvm.lifetime.start.p0(i64 8, ptr %7) #6
  call void @llvm.lifetime.start.p0(i64 8, ptr %8) #6
  store ptr null, ptr %8, align 8, !tbaa !69
  store ptr null, ptr %7, align 8, !tbaa !69
  %9 = load ptr, ptr %3, align 8, !tbaa !10
  %10 = getelementptr inbounds nuw %struct._generic_N_Vector, ptr %9, i32 0, i32 0
  %11 = load ptr, ptr %10, align 8, !tbaa !61
  %12 = getelementptr inbounds nuw %struct._N_VectorContent_Serial, ptr %11, i32 0, i32 0
  %13 = load i64, ptr %12, align 8, !tbaa !62
  store i64 %13, ptr %6, align 8, !tbaa !3
  %14 = load ptr, ptr %3, align 8, !tbaa !10
  %15 = getelementptr inbounds nuw %struct._generic_N_Vector, ptr %14, i32 0, i32 0
  %16 = load ptr, ptr %15, align 8, !tbaa !61
  %17 = getelementptr inbounds nuw %struct._N_VectorContent_Serial, ptr %16, i32 0, i32 2
  %18 = load ptr, ptr %17, align 8, !tbaa !67
  store ptr %18, ptr %7, align 8, !tbaa !69
  %19 = load ptr, ptr %4, align 8, !tbaa !10
  %20 = getelementptr inbounds nuw %struct._generic_N_Vector, ptr %19, i32 0, i32 0
  %21 = load ptr, ptr %20, align 8, !tbaa !61
  %22 = getelementptr inbounds nuw %struct._N_VectorContent_Serial, ptr %21, i32 0, i32 2
  %23 = load ptr, ptr %22, align 8, !tbaa !67
  store ptr %23, ptr %8, align 8, !tbaa !69
  store i64 0, ptr %5, align 8, !tbaa !3
  br label %24

24:                                               ; preds = %36, %2
  %25 = load i64, ptr %5, align 8, !tbaa !3
  %26 = load i64, ptr %6, align 8, !tbaa !3
  %27 = icmp slt i64 %25, %26
  br i1 %27, label %28, label %39

28:                                               ; preds = %24
  %29 = load ptr, ptr %7, align 8, !tbaa !69
  %30 = load i64, ptr %5, align 8, !tbaa !3
  %31 = getelementptr inbounds double, ptr %29, i64 %30
  %32 = load double, ptr %31, align 8, !tbaa !72
  %33 = load ptr, ptr %8, align 8, !tbaa !69
  %34 = load i64, ptr %5, align 8, !tbaa !3
  %35 = getelementptr inbounds double, ptr %33, i64 %34
  store double %32, ptr %35, align 8, !tbaa !72
  br label %36

36:                                               ; preds = %28
  %37 = load i64, ptr %5, align 8, !tbaa !3
  %38 = add nsw i64 %37, 1
  store i64 %38, ptr %5, align 8, !tbaa !3
  br label %24

39:                                               ; preds = %24
  call void @llvm.lifetime.end.p0(i64 8, ptr %8) #6
  call void @llvm.lifetime.end.p0(i64 8, ptr %7) #6
  call void @llvm.lifetime.end.p0(i64 8, ptr %6) #6
  call void @llvm.lifetime.end.p0(i64 8, ptr %5) #6
  ret void
}

; Function Attrs: nounwind uwtable
define internal void @VScaleBy_Serial(double noundef %0, ptr noundef %1) #0 {
  %3 = alloca double, align 8
  %4 = alloca ptr, align 8
  %5 = alloca i64, align 8
  %6 = alloca i64, align 8
  %7 = alloca ptr, align 8
  store double %0, ptr %3, align 8, !tbaa !72
  store ptr %1, ptr %4, align 8, !tbaa !10
  call void @llvm.lifetime.start.p0(i64 8, ptr %5) #6
  call void @llvm.lifetime.start.p0(i64 8, ptr %6) #6
  call void @llvm.lifetime.start.p0(i64 8, ptr %7) #6
  store ptr null, ptr %7, align 8, !tbaa !69
  %8 = load ptr, ptr %4, align 8, !tbaa !10
  %9 = getelementptr inbounds nuw %struct._generic_N_Vector, ptr %8, i32 0, i32 0
  %10 = load ptr, ptr %9, align 8, !tbaa !61
  %11 = getelementptr inbounds nuw %struct._N_VectorContent_Serial, ptr %10, i32 0, i32 0
  %12 = load i64, ptr %11, align 8, !tbaa !62
  store i64 %12, ptr %6, align 8, !tbaa !3
  %13 = load ptr, ptr %4, align 8, !tbaa !10
  %14 = getelementptr inbounds nuw %struct._generic_N_Vector, ptr %13, i32 0, i32 0
  %15 = load ptr, ptr %14, align 8, !tbaa !61
  %16 = getelementptr inbounds nuw %struct._N_VectorContent_Serial, ptr %15, i32 0, i32 2
  %17 = load ptr, ptr %16, align 8, !tbaa !67
  store ptr %17, ptr %7, align 8, !tbaa !69
  store i64 0, ptr %5, align 8, !tbaa !3
  br label %18

18:                                               ; preds = %29, %2
  %19 = load i64, ptr %5, align 8, !tbaa !3
  %20 = load i64, ptr %6, align 8, !tbaa !3
  %21 = icmp slt i64 %19, %20
  br i1 %21, label %22, label %32

22:                                               ; preds = %18
  %23 = load double, ptr %3, align 8, !tbaa !72
  %24 = load ptr, ptr %7, align 8, !tbaa !69
  %25 = load i64, ptr %5, align 8, !tbaa !3
  %26 = getelementptr inbounds double, ptr %24, i64 %25
  %27 = load double, ptr %26, align 8, !tbaa !72
  %28 = fmul double %27, %23
  store double %28, ptr %26, align 8, !tbaa !72
  br label %29

29:                                               ; preds = %22
  %30 = load i64, ptr %5, align 8, !tbaa !3
  %31 = add nsw i64 %30, 1
  store i64 %31, ptr %5, align 8, !tbaa !3
  br label %18

32:                                               ; preds = %18
  call void @llvm.lifetime.end.p0(i64 8, ptr %7) #6
  call void @llvm.lifetime.end.p0(i64 8, ptr %6) #6
  call void @llvm.lifetime.end.p0(i64 8, ptr %5) #6
  ret void
}

; Function Attrs: nounwind uwtable
define void @N_VScale_Serial(double noundef %0, ptr noundef %1, ptr noundef %2) #0 {
  %4 = alloca double, align 8
  %5 = alloca ptr, align 8
  %6 = alloca ptr, align 8
  %7 = alloca i64, align 8
  %8 = alloca i64, align 8
  %9 = alloca ptr, align 8
  %10 = alloca ptr, align 8
  %11 = alloca i32, align 4
  store double %0, ptr %4, align 8, !tbaa !72
  store ptr %1, ptr %5, align 8, !tbaa !10
  store ptr %2, ptr %6, align 8, !tbaa !10
  call void @llvm.lifetime.start.p0(i64 8, ptr %7) #6
  call void @llvm.lifetime.start.p0(i64 8, ptr %8) #6
  call void @llvm.lifetime.start.p0(i64 8, ptr %9) #6
  call void @llvm.lifetime.start.p0(i64 8, ptr %10) #6
  store ptr null, ptr %10, align 8, !tbaa !69
  store ptr null, ptr %9, align 8, !tbaa !69
  %12 = load ptr, ptr %6, align 8, !tbaa !10
  %13 = load ptr, ptr %5, align 8, !tbaa !10
  %14 = icmp eq ptr %12, %13
  br i1 %14, label %15, label %18

15:                                               ; preds = %3
  %16 = load double, ptr %4, align 8, !tbaa !72
  %17 = load ptr, ptr %5, align 8, !tbaa !10
  call void @VScaleBy_Serial(double noundef %16, ptr noundef %17)
  store i32 1, ptr %11, align 4
  br label %66

18:                                               ; preds = %3
  %19 = load double, ptr %4, align 8, !tbaa !72
  %20 = fcmp oeq double %19, 1.000000e+00
  br i1 %20, label %21, label %24

21:                                               ; preds = %18
  %22 = load ptr, ptr %5, align 8, !tbaa !10
  %23 = load ptr, ptr %6, align 8, !tbaa !10
  call void @VCopy_Serial(ptr noundef %22, ptr noundef %23)
  br label %65

24:                                               ; preds = %18
  %25 = load double, ptr %4, align 8, !tbaa !72
  %26 = fcmp oeq double %25, -1.000000e+00
  br i1 %26, label %27, label %30

27:                                               ; preds = %24
  %28 = load ptr, ptr %5, align 8, !tbaa !10
  %29 = load ptr, ptr %6, align 8, !tbaa !10
  call void @VNeg_Serial(ptr noundef %28, ptr noundef %29)
  br label %64

30:                                               ; preds = %24
  %31 = load ptr, ptr %5, align 8, !tbaa !10
  %32 = getelementptr inbounds nuw %struct._generic_N_Vector, ptr %31, i32 0, i32 0
  %33 = load ptr, ptr %32, align 8, !tbaa !61
  %34 = getelementptr inbounds nuw %struct._N_VectorContent_Serial, ptr %33, i32 0, i32 0
  %35 = load i64, ptr %34, align 8, !tbaa !62
  store i64 %35, ptr %8, align 8, !tbaa !3
  %36 = load ptr, ptr %5, align 8, !tbaa !10
  %37 = getelementptr inbounds nuw %struct._generic_N_Vector, ptr %36, i32 0, i32 0
  %38 = load ptr, ptr %37, align 8, !tbaa !61
  %39 = getelementptr inbounds nuw %struct._N_VectorContent_Serial, ptr %38, i32 0, i32 2
  %40 = load ptr, ptr %39, align 8, !tbaa !67
  store ptr %40, ptr %9, align 8, !tbaa !69
  %41 = load ptr, ptr %6, align 8, !tbaa !10
  %42 = getelementptr inbounds nuw %struct._generic_N_Vector, ptr %41, i32 0, i32 0
  %43 = load ptr, ptr %42, align 8, !tbaa !61
  %44 = getelementptr inbounds nuw %struct._N_VectorContent_Serial, ptr %43, i32 0, i32 2
  %45 = load ptr, ptr %44, align 8, !tbaa !67
  store ptr %45, ptr %10, align 8, !tbaa !69
  store i64 0, ptr %7, align 8, !tbaa !3
  br label %46

46:                                               ; preds = %60, %30
  %47 = load i64, ptr %7, align 8, !tbaa !3
  %48 = load i64, ptr %8, align 8, !tbaa !3
  %49 = icmp slt i64 %47, %48
  br i1 %49, label %50, label %63

50:                                               ; preds = %46
  %51 = load double, ptr %4, align 8, !tbaa !72
  %52 = load ptr, ptr %9, align 8, !tbaa !69
  %53 = load i64, ptr %7, align 8, !tbaa !3
  %54 = getelementptr inbounds double, ptr %52, i64 %53
  %55 = load double, ptr %54, align 8, !tbaa !72
  %56 = fmul double %51, %55
  %57 = load ptr, ptr %10, align 8, !tbaa !69
  %58 = load i64, ptr %7, align 8, !tbaa !3
  %59 = getelementptr inbounds double, ptr %57, i64 %58
  store double %56, ptr %59, align 8, !tbaa !72
  br label %60

60:                                               ; preds = %50
  %61 = load i64, ptr %7, align 8, !tbaa !3
  %62 = add nsw i64 %61, 1
  store i64 %62, ptr %7, align 8, !tbaa !3
  br label %46

63:                                               ; preds = %46
  br label %64

64:                                               ; preds = %63, %27
  br label %65

65:                                               ; preds = %64, %21
  store i32 1, ptr %11, align 4
  br label %66

66:                                               ; preds = %65, %15
  call void @llvm.lifetime.end.p0(i64 8, ptr %10) #6
  call void @llvm.lifetime.end.p0(i64 8, ptr %9) #6
  call void @llvm.lifetime.end.p0(i64 8, ptr %8) #6
  call void @llvm.lifetime.end.p0(i64 8, ptr %7) #6
  ret void
}